; Function Attrs: nounwind uwtable
define void @Cgt_ManConstructCare(ptr noundef %0, ptr noundef %1, ptr noundef readonly captures(none) %2, ptr noundef readonly captures(none) %3) local_unnamed_addr #0 {
  tail call void @Aig_ManIncrementTravId(ptr noundef %1) #13
  %5 = getelementptr i8, ptr %3, i64 4
  %.val5463 = load i32, ptr %5, align 4, !tbaa !28
  %6 = icmp sgt i32 %.val5463, 0
  br i1 %6, label %.lr.ph, label %.critedge2

.lr.ph:                                           ; preds = %4
  %7 = getelementptr i8, ptr %3, i64 8
  %8 = getelementptr i8, ptr %1, i64 16
  %9 = getelementptr i8, ptr %1, i64 312
  br label %16

.critedge.preheader:                              ; preds = %16
  %10 = icmp sgt i32 %.val54, 0
  br i1 %10, label %.lr.ph70, label %.critedge2

.lr.ph70:                                         ; preds = %.critedge.preheader
  %11 = getelementptr i8, ptr %3, i64 8
  %12 = getelementptr i8, ptr %2, i64 8
  %13 = getelementptr i8, ptr %1, i64 24
  %14 = getelementptr i8, ptr %1, i64 312
  %15 = getelementptr i8, ptr %1, i64 48
  br label %29

16:                                               ; preds = %.lr.ph, %16
  %indvars.iv = phi i64 [ 0, %.lr.ph ], [ %indvars.iv.next, %16 ]
  %.val52 = load ptr, ptr %7, align 8, !tbaa !31
  %17 = getelementptr inbounds nuw ptr, ptr %.val52, i64 %indvars.iv
  %18 = load ptr, ptr %17, align 8, !tbaa !32
  %.val55 = load i32, ptr %18, align 8, !tbaa !51
  %.val59 = load ptr, ptr %8, align 8, !tbaa !58
  %19 = getelementptr i8, ptr %.val59, i64 8
  %.val59.val = load ptr, ptr %19, align 8, !tbaa !31
  %20 = sext i32 %.val55 to i64
  %21 = getelementptr inbounds ptr, ptr %.val59.val, i64 %20
  %22 = load ptr, ptr %21, align 8, !tbaa !32
  %.val47 = load i32, ptr %9, align 8, !tbaa !3
  %23 = getelementptr inbounds nuw i8, ptr %22, i64 32
  store i32 %.val47, ptr %23, align 8, !tbaa !21
  %24 = getelementptr inbounds nuw i8, ptr %18, i64 40
  %25 = load ptr, ptr %24, align 8, !tbaa !51
  %26 = getelementptr inbounds nuw i8, ptr %22, i64 40
  store ptr %25, ptr %26, align 8, !tbaa !51
  %indvars.iv.next = add nuw nsw i64 %indvars.iv, 1
  %.val54 = load i32, ptr %5, align 4, !tbaa !28
  %27 = sext i32 %.val54 to i64
  %28 = icmp slt i64 %indvars.iv.next, %27
  br i1 %28, label %16, label %.critedge.preheader, !llvm.loop !67

29:                                               ; preds = %.lr.ph70, %.critedge4
  %.val5379 = phi i32 [ %.val54, %.lr.ph70 ], [ %.val53, %.critedge4 ]
  %indvars.iv75 = phi i64 [ 0, %.lr.ph70 ], [ %indvars.iv.next76, %.critedge4 ]
  %.val51 = load ptr, ptr %11, align 8, !tbaa !31
  %30 = getelementptr inbounds nuw ptr, ptr %.val51, i64 %indvars.iv75
  %31 = load ptr, ptr %30, align 8, !tbaa !32
  %.val56 = load i32, ptr %31, align 8, !tbaa !51
  %.val60 = load ptr, ptr %12, align 8, !tbaa !68
  %32 = sext i32 %.val56 to i64
  %33 = getelementptr inbounds ptr, ptr %.val60, i64 %32
  %34 = load ptr, ptr %33, align 8, !tbaa !32
  %35 = getelementptr i8, ptr %34, i64 4
  %.val6165 = load i32, ptr %35, align 4, !tbaa !70
  %36 = icmp sgt i32 %.val6165, 0
  br i1 %36, label %.lr.ph67, label %.critedge4

.lr.ph67:                                         ; preds = %29
  %37 = getelementptr i8, ptr %34, i64 8
  br label %38

38:                                               ; preds = %.lr.ph67, %62
  %indvars.iv72 = phi i64 [ 0, %.lr.ph67 ], [ %indvars.iv.next73, %62 ]
  %.val50 = load ptr, ptr %37, align 8, !tbaa !25
  %39 = getelementptr inbounds nuw i32, ptr %.val50, i64 %indvars.iv72
  %40 = load i32, ptr %39, align 4, !tbaa !27
  %.val62 = load ptr, ptr %13, align 8, !tbaa !63
  %41 = getelementptr i8, ptr %.val62, i64 8
  %.val62.val = load ptr, ptr %41, align 8, !tbaa !31
  %42 = sext i32 %40 to i64
  %43 = getelementptr inbounds ptr, ptr %.val62.val, i64 %42
  %44 = load ptr, ptr %43, align 8, !tbaa !32
  %.val = load i32, ptr %14, align 8, !tbaa !3
  %45 = getelementptr i8, ptr %44, i64 32
  %.val45 = load i32, ptr %45, align 8, !tbaa !21
  %.not = icmp eq i32 %.val45, %.val
  br i1 %.not, label %62, label %46

46:                                               ; preds = %38
  store i32 %.val, ptr %45, align 8, !tbaa !21
  %47 = getelementptr i8, ptr %44, i64 8
  %.val49 = load ptr, ptr %47, align 8, !tbaa !22
  %48 = ptrtoint ptr %.val49 to i64
  %49 = and i64 %48, -2
  %50 = inttoptr i64 %49 to ptr
  %.val58 = load ptr, ptr %15, align 8, !tbaa !55
  %51 = icmp eq ptr %.val58, %50
  br i1 %51, label %62, label %52

52:                                               ; preds = %46
  %53 = tail call ptr @Cgt_ManConstructCare_rec(ptr noundef nonnull %1, ptr noundef %50, ptr noundef %0)
  %54 = icmp eq ptr %53, null
  br i1 %54, label %62, label %55

55:                                               ; preds = %52
  %.val57 = load ptr, ptr %47, align 8, !tbaa !22
  %56 = ptrtoint ptr %.val57 to i64
  %57 = and i64 %56, 1
  %58 = ptrtoint ptr %53 to i64
  %59 = xor i64 %57, %58
  %60 = inttoptr i64 %59 to ptr
  %61 = tail call ptr @Aig_ObjCreateCo(ptr noundef %0, ptr noundef %60) #13
  br label %62

62:                                               ; preds = %52, %46, %38, %55
  %indvars.iv.next73 = add nuw nsw i64 %indvars.iv72, 1
  %.val61 = load i32, ptr %35, align 4, !tbaa !70
  %63 = sext i32 %.val61 to i64
  %64 = icmp slt i64 %indvars.iv.next73, %63
  br i1 %64, label %38, label %.critedge4.loopexit, !llvm.loop !71

.critedge4.loopexit:                              ; preds = %62
  %.val53.pre = load i32, ptr %5, align 4, !tbaa !28
  br label %.critedge4

.critedge4:                                       ; preds = %.critedge4.loopexit, %29
  %.val53 = phi i32 [ %.val53.pre, %.critedge4.loopexit ], [ %.val5379, %29 ]
  %indvars.iv.next76 = add nuw nsw i64 %indvars.iv75, 1
  %65 = sext i32 %.val53 to i64
  %66 = icmp slt i64 %indvars.iv.next76, %65
  br i1 %66, label %29, label %.critedge2, !llvm.loop !72

.critedge2:                                       ; preds = %.critedge4, %4, %.critedge.preheader
  ret void
}